; Function Attrs: nounwind uwtable
define void @Div_CubePrint(ptr noundef readonly captures(none) %0, i32 noundef %1) local_unnamed_addr #2 {
  %3 = add nsw i32 %1, 1
  %or.cond.i.i = icmp ult i32 %1, 15
  %spec.store.select.i.i = select i1 %or.cond.i.i, i32 16, i32 %3
  %.not.i.i = icmp eq i32 %spec.store.select.i.i, 0
  br i1 %.not.i.i, label %Vec_StrStart.exit, label %4

4:                                                ; preds = %2
  %5 = sext i32 %spec.store.select.i.i to i64
  %6 = tail call noalias ptr @malloc(i64 noundef %5) #17
  br label %Vec_StrStart.exit

Vec_StrStart.exit:                                ; preds = %2, %4
  %.promoted13 = phi ptr [ %6, %4 ], [ null, %2 ]
  %7 = sext i32 %3 to i64
  tail call void @llvm.memset.p0.i64(ptr align 1 %.promoted13, i8 0, i64 %7, i1 false)
  %8 = getelementptr i8, ptr %0, i64 4
  %.val11 = load i32, ptr %8, align 4, !tbaa !24
  %9 = icmp sgt i32 %.val11, 0
  br i1 %9, label %.lr.ph, label %.critedge

.lr.ph:                                           ; preds = %Vec_StrStart.exit
  %10 = getelementptr i8, ptr %0, i64 8
  %11 = sext i32 %1 to i64
  %12 = icmp sgt i32 %1, 0
  %13 = zext i32 %1 to i64
  br i1 %12, label %.lr.ph.split.us, label %.lr.ph.split

.lr.ph.split.us:                                  ; preds = %.lr.ph, %Div_CubePrintOne.exit.us
  %indvars.iv20 = phi i64 [ %indvars.iv.next21, %Div_CubePrintOne.exit.us ], [ 0, %.lr.ph ]
  %.val12.i14.us = phi ptr [ %.val12.i15.us, %Div_CubePrintOne.exit.us ], [ %.promoted13, %.lr.ph ]
  %14 = phi i32 [ %21, %Div_CubePrintOne.exit.us ], [ %spec.store.select.i.i, %.lr.ph ]
  %.val9.us = load ptr, ptr %10, align 8, !tbaa !27
  %15 = getelementptr inbounds nuw %struct.Vec_Int_t_, ptr %.val9.us, i64 %indvars.iv20
  %.not.i.i.i.us = icmp slt i32 %14, %1
  br i1 %.not.i.i.i.us, label %16, label %Vec_StrGrow.exit.i.i.us

16:                                               ; preds = %.lr.ph.split.us
  %.not9.i.i.i.us = icmp eq ptr %.val12.i14.us, null
  br i1 %.not9.i.i.i.us, label %19, label %17

17:                                               ; preds = %16
  %18 = tail call ptr @realloc(ptr noundef nonnull %.val12.i14.us, i64 noundef %11) #16
  br label %Vec_StrGrow.exit.i.i.us

19:                                               ; preds = %16
  %20 = tail call noalias ptr @malloc(i64 noundef %11) #17
  br label %Vec_StrGrow.exit.i.i.us

Vec_StrGrow.exit.i.i.us:                          ; preds = %17, %19, %.lr.ph.split.us
  %.val12.i15.us = phi ptr [ %.val12.i14.us, %.lr.ph.split.us ], [ %18, %17 ], [ %20, %19 ]
  %21 = phi i32 [ %14, %.lr.ph.split.us ], [ %1, %17 ], [ %1, %19 ]
  tail call void @llvm.memset.p0.i64(ptr align 1 %.val12.i15.us, i8 45, i64 %13, i1 false), !tbaa !21
  %22 = getelementptr i8, ptr %15, i64 4
  %.val13.i.us = load i32, ptr %22, align 4, !tbaa !10
  %23 = icmp sgt i32 %.val13.i.us, 0
  br i1 %23, label %.lr.ph.i.us, label %Div_CubePrintOne.exit.us

.lr.ph.i.us:                                      ; preds = %Vec_StrGrow.exit.i.i.us
  %24 = getelementptr i8, ptr %15, i64 8
  br label %25

25:                                               ; preds = %25, %.lr.ph.i.us
  %indvars.iv.i.us = phi i64 [ 0, %.lr.ph.i.us ], [ %indvars.iv.next.i.us, %25 ]
  %.val10.i.us = load ptr, ptr %24, align 8, !tbaa !3
  %26 = getelementptr inbounds nuw i32, ptr %.val10.i.us, i64 %indvars.iv.i.us
  %27 = load i32, ptr %26, align 4, !tbaa !11
  %28 = ashr i32 %27, 1
  %29 = and i32 %27, 1
  %.not.i.us = icmp eq i32 %29, 0
  %30 = select i1 %.not.i.us, i8 49, i8 48
  %31 = sext i32 %28 to i64
  %32 = getelementptr inbounds i8, ptr %.val12.i15.us, i64 %31
  store i8 %30, ptr %32, align 1, !tbaa !21
  %indvars.iv.next.i.us = add nuw nsw i64 %indvars.iv.i.us, 1
  %.val.i.us = load i32, ptr %22, align 4, !tbaa !10
  %33 = sext i32 %.val.i.us to i64
  %34 = icmp slt i64 %indvars.iv.next.i.us, %33
  br i1 %34, label %25, label %Div_CubePrintOne.exit.us, !llvm.loop !23

Div_CubePrintOne.exit.us:                         ; preds = %25, %Vec_StrGrow.exit.i.i.us
  %puts.i.us = tail call i32 @puts(ptr nonnull dereferenceable(1) %.val12.i15.us)
  %indvars.iv.next21 = add nuw nsw i64 %indvars.iv20, 1
  %.val.us = load i32, ptr %8, align 4, !tbaa !24
  %35 = sext i32 %.val.us to i64
  %36 = icmp slt i64 %indvars.iv.next21, %35
  br i1 %36, label %.lr.ph.split.us, label %.critedge.thread, !llvm.loop !28

.lr.ph.split:                                     ; preds = %.lr.ph, %Div_CubePrintOne.exit
  %indvars.iv = phi i64 [ %indvars.iv.next, %Div_CubePrintOne.exit ], [ 0, %.lr.ph ]
  %.val12.i14 = phi ptr [ %.val12.i15, %Div_CubePrintOne.exit ], [ %.promoted13, %.lr.ph ]
  %37 = phi i32 [ %44, %Div_CubePrintOne.exit ], [ %spec.store.select.i.i, %.lr.ph ]
  %.val9 = load ptr, ptr %10, align 8, !tbaa !27
  %38 = getelementptr inbounds nuw %struct.Vec_Int_t_, ptr %.val9, i64 %indvars.iv
  %.not.i.i.i = icmp slt i32 %37, %1
  br i1 %.not.i.i.i, label %39, label %Vec_StrGrow.exit.i.i

39:                                               ; preds = %.lr.ph.split
  %.not9.i.i.i = icmp eq ptr %.val12.i14, null
  br i1 %.not9.i.i.i, label %42, label %40

40:                                               ; preds = %39
  %41 = tail call ptr @realloc(ptr noundef nonnull %.val12.i14, i64 noundef %11) #16
  br label %Vec_StrGrow.exit.i.i

42:                                               ; preds = %39
  %43 = tail call noalias ptr @malloc(i64 noundef %11) #17
  br label %Vec_StrGrow.exit.i.i

Vec_StrGrow.exit.i.i:                             ; preds = %40, %42, %.lr.ph.split
  %.val12.i15 = phi ptr [ %.val12.i14, %.lr.ph.split ], [ %41, %40 ], [ %43, %42 ]
  %44 = phi i32 [ %37, %.lr.ph.split ], [ %1, %40 ], [ %1, %42 ]
  %45 = getelementptr i8, ptr %38, i64 4
  %.val13.i = load i32, ptr %45, align 4, !tbaa !10
  %46 = icmp sgt i32 %.val13.i, 0
  br i1 %46, label %.lr.ph.i, label %Div_CubePrintOne.exit

.lr.ph.i:                                         ; preds = %Vec_StrGrow.exit.i.i
  %47 = getelementptr i8, ptr %38, i64 8
  br label %48

48:                                               ; preds = %48, %.lr.ph.i
  %indvars.iv.i = phi i64 [ 0, %.lr.ph.i ], [ %indvars.iv.next.i, %48 ]
  %.val10.i = load ptr, ptr %47, align 8, !tbaa !3
  %49 = getelementptr inbounds nuw i32, ptr %.val10.i, i64 %indvars.iv.i
  %50 = load i32, ptr %49, align 4, !tbaa !11
  %51 = ashr i32 %50, 1
  %52 = and i32 %50, 1
  %.not.i = icmp eq i32 %52, 0
  %53 = select i1 %.not.i, i8 49, i8 48
  %54 = sext i32 %51 to i64
  %55 = getelementptr inbounds i8, ptr %.val12.i15, i64 %54
  store i8 %53, ptr %55, align 1, !tbaa !21
  %indvars.iv.next.i = add nuw nsw i64 %indvars.iv.i, 1
  %.val.i = load i32, ptr %45, align 4, !tbaa !10
  %56 = sext i32 %.val.i to i64
  %57 = icmp slt i64 %indvars.iv.next.i, %56
  br i1 %57, label %48, label %Div_CubePrintOne.exit, !llvm.loop !23

Div_CubePrintOne.exit:                            ; preds = %48, %Vec_StrGrow.exit.i.i
  %puts.i = tail call i32 @puts(ptr nonnull dereferenceable(1) %.val12.i15)
  %indvars.iv.next = add nuw nsw i64 %indvars.iv, 1
  %.val = load i32, ptr %8, align 4, !tbaa !24
  %58 = sext i32 %.val to i64
  %59 = icmp slt i64 %indvars.iv.next, %58
  br i1 %59, label %.lr.ph.split, label %.critedge.thread, !llvm.loop !28

.critedge:                                        ; preds = %Vec_StrStart.exit
  %.not.i10 = icmp eq ptr %.promoted13, null
  br i1 %.not.i10, label %Vec_StrFree.exit, label %.critedge.thread

.critedge.thread:                                 ; preds = %Div_CubePrintOne.exit, %Div_CubePrintOne.exit.us, %.critedge
  %60 = phi ptr [ %.promoted13, %.critedge ], [ %.val12.i15.us, %Div_CubePrintOne.exit.us ], [ %.val12.i15, %Div_CubePrintOne.exit ]
  tail call void @free(ptr noundef nonnull %60) #18
  br label %Vec_StrFree.exit

Vec_StrFree.exit:                                 ; preds = %.critedge, %.critedge.thread
  ret void
}